Certificate:
    Data:
        Version: 1 (0x0)
        Serial Number: 1 (0x1)
    Signature Algorithm: sha512WithRSAEncryption
        Issuer: C=US, ST=CA, O=Open vSwitch, OU=switchca, CN=OVS switchca CA Certificate (2017 Oct 13 21:21:00)
        Validity
            Not Before: Oct 13 21:21:00 2017 GMT
            Not After : Oct 11 21:21:00 2027 GMT
        Subject: C=US, ST=CA, O=Open vSwitch, OU=switchca, CN=OVS switchca CA Certificate (2017 Oct 13 21:21:00)
        Subject Public Key Info:
            Public Key Algorithm: rsaEncryption
                Public-Key: (2048 bit)
                Modulus:
                    00:a6:1e:bb:b3:d7:08:37:9d:bd:7a:8b:64:b3:d2:
                    a8:4d:41:e6:05:aa:a6:c3:f9:f7:2c:aa:6e:34:cb:
                    7f:87:d7:2f:48:f2:2c:13:c9:14:47:0b:4f:f1:c0:
                    68:c4:8e:2f:07:f9:f4:ff:fe:6e:8f:32:7f:35:cb:
                    a0:91:b1:0f:b4:1c:00:52:7a:f6:c1:ae:d2:53:a2:
                    82:45:e6:6e:99:aa:3c:32:61:df:86:22:69:1d:c3:
                    ef:87:85:6e:f1:fe:0c:1f:bd:49:33:be:bc:cf:f7:
                    62:4a:90:6f:1a:1d:33:56:63:b0:f5:fa:43:42:04:
                    6b:52:78:44:94:b4:5f:1d:9e:55:da:2d:0b:6d:ad:
                    5a:76:05:95:ce:4e:2a:53:da:a4:17:87:8f:b3:87:
                    24:9e:b5:69:05:44:a7:5f:63:2a:43:f3:86:c3:d1:
                    d1:1d:2c:b1:07:2a:2f:44:90:dc:0e:0a:8a:e0:01:
                    d7:13:2c:d7:07:f1:cc:c8:83:83:7b:59:8a:a0:06:
                    86:1a:69:07:5c:26:07:db:28:f0:e1:d5:15:85:07:
                    2e:e6:c6:66:ca:58:e2:24:01:4a:9c:9e:a2:c5:65:
                    bb:38:bd:a7:1c:5e:82:d8:67:2a:33:33:9e:b3:f7:
                    d0:a3:27:25:9d:72:4f:2c:92:c0:17:f4:7b:54:f9:
                    77:67
                Exponent: 65537 (0x10001)
    Signature Algorithm: sha512WithRSAEncryption
         52:08:af:ef:08:2e:77:26:af:3d:f8:3b:c0:38:fb:81:13:3b:
         ac:ab:d2:54:89:b3:49:88:c2:25:29:29:3d:fb:76:12:73:7c:
         57:ed:05:a9:fe:96:96:c3:9f:61:69:b3:8d:3b:48:f6:05:f0:
         d8:72:7d:3e:90:91:47:c7:85:b8:44:12:fc:e1:d0:7f:07:6f:
         a6:e3:71:88:7a:6b:83:0d:f5:66:c1:b8:99:ba:40:21:d8:7a:
         28:c1:bf:a5:56:39:eb:e0:e2:6d:85:d0:58:36:ac:68:21:50:
         ea:54:cf:df:a2:f2:b5:a6:aa:07:d5:1b:55:07:32:0e:1b:04:
         84:66:d2:53:74:5e:bd:7f:ca:ec:0e:b8:35:6a:41:f4:26:91:
         e6:e3:48:74:5e:c3:ae:e4:9f:a1:83:6f:d4:96:08:c0:b6:4f:
         da:5c:f6:8b:fe:23:7d:42:e2:ae:ae:a5:14:76:1c:7d:6e:21:
         7c:6d:96:da:75:75:4e:ec:e6:27:99:67:0a:ac:0a:05:5d:b6:
         58:7b:60:85:57:7c:03:24:7e:4f:d3:ff:b7:4d:26:86:94:03:
         08:19:14:be:0a:25:d0:09:4a:19:7b:a2:f4:d9:88:6c:cc:05:
         1f:df:18:b4:80:64:67:6c:14:26:3e:6c:60:15:72:14:31:5b:
         47:2a:5b:d8
-----BEGIN CERTIFICATE-----
MIIDeDCCAmACAQEwDQYJKoZIhvcNAQENBQAwgYExCzAJBgNVBAYTAlVTMQswCQYD
VQQIDAJDQTEVMBMGA1UECgwMT3BlbiB2U3dpdGNoMREwDwYDVQQLDAhzd2l0Y2hj
YTE7MDkGA1UEAwwyT1ZTIHN3aXRjaGNhIENBIENlcnRpZmljYXRlICgyMDE3IE9j
dCAxMyAyMToyMTowMCkwHhcNMTcxMDEzMjEyMTAwWhcNMjcxMDExMjEyMTAwWjCB
gTELMAkGA1UEBhMCVVMxCzAJBgNVBAgMAkNBMRUwEwYDVQQKDAxPcGVuIHZTd2l0
Y2gxETAPBgNVBAsMCHN3aXRjaGNhMTswOQYDVQQDDDJPVlMgc3dpdGNoY2EgQ0Eg
Q2VydGlmaWNhdGUgKDIwMTcgT2N0IDEzIDIxOjIxOjAwKTCCASIwDQYJKoZIhvcN
AQEBBQADggEPADCCAQoCggEBAKYeu7PXCDedvXqLZLPSqE1B5gWqpsP59yyqbjTL
f4fXL0jyLBPJFEcLT/HAaMSOLwf59P/+bo8yfzXLoJGxD7QcAFJ69sGu0lOigkXm
bpmqPDJh34YiaR3D74eFbvH+DB+9STO+vM/3YkqQbxodM1ZjsPX6Q0IEa1J4RJS0
Xx2eVdotC22tWnYFlc5OKlPapBeHj7OHJJ61aQVEp19jKkPzhsPR0R0ssQcqL0SQ
3A4KiuAB1xMs1wfxzMiDg3tZiqAGhhppB1wmB9so8OHVFYUHLubGZspY4iQBSpye
osVluzi9pxxegthnKjMznrP30KMnJZ1yTyySwBf0e1T5d2cCAwEAATANBgkqhkiG
9w0BAQ0FAAOCAQEAUgiv7wgudyavPfg7wDj7gRM7rKvSVImzSYjCJSkpPft2EnN8
V+0Fqf6WlsOfYWmzjTtI9gXw2HJ9PpCRR8eFuEQS/OHQfwdvpuNxiHprgw31ZsG4
mbpAIdh6KMG/pVY56+DibYXQWDasaCFQ6lTP36LytaaqB9UbVQcyDhsEhGbSU3Re
vX/K7A64NWpB9CaR5uNIdF7DruSfoYNv1JYIwLZP2lz2i/4jfULirq6lFHYcfW4h
fG2W2nV1TuzmJ5lnCqwKBV22WHtghVd8AyR+T9P/t00mhpQDCBkUvgol0AlKGXui
9NmIbMwFH98YtIBkZ2wUJj5sYBVyFDFbRypb2A==
-----END CERTIFICATE-----
