Certificate:
    Data:
        Version: 1 (0x0)
        Serial Number: 2 (0x2)
    Signature Algorithm: sha512WithRSAEncryption
        Issuer: C=US, ST=CA, O=Open vSwitch, OU=switchca, CN=OVS switchca CA Certificate (2017 Oct 13 21:21:00)
        Validity
            Not Before: Oct 13 21:21:01 2017 GMT
            Not After : Oct 11 21:21:01 2027 GMT
        Subject: C=US, ST=CA, O=Open vSwitch, OU=Open vSwitch certifier, CN=ovncontroller id:1f699043-b4d9-4e1a-a1d2-45cb06e9e023
        Subject Public Key Info:
            Public Key Algorithm: rsaEncryption
                Public-Key: (2048 bit)
                Modulus:
                    00:9c:ff:ed:7c:9a:e7:4e:e8:93:f4:0a:71:fa:d5:
                    14:3b:f9:0d:dd:1d:7a:2b:c6:c1:04:a6:58:a7:b5:
                    93:d2:08:9f:b3:5f:13:ea:14:fb:86:e8:09:6d:54:
                    c7:34:f3:bb:17:04:2b:b0:85:88:58:15:cc:ad:6d:
                    37:4c:48:93:0b:02:15:9d:fe:01:aa:ad:ab:94:3e:
                    69:d3:8a:ae:32:bb:7c:be:87:9a:4c:ac:73:8c:79:
                    34:94:03:01:82:b7:0b:cd:d5:f7:21:33:52:47:e1:
                    4f:52:d9:af:d6:27:4c:67:80:6e:6f:9f:4b:a0:bd:
                    f1:aa:c3:87:d2:53:7b:c9:e1:d8:a7:43:15:14:d1:
                    3e:c7:24:1f:f7:5b:f4:7e:97:5b:f1:ec:69:28:29:
                    12:42:20:8c:6d:36:61:7f:4e:f3:fc:09:03:fb:f5:
                    4e:a1:88:8e:53:fb:9e:a2:c3:8b:30:31:c6:fb:ab:
                    85:6c:83:b5:9a:58:1e:5b:37:34:d7:d2:b7:c0:8e:
                    cf:cd:ae:b6:06:a3:6f:a0:2c:77:39:69:8e:37:ef:
                    33:6a:1a:55:d2:65:2b:52:df:03:b1:b1:0b:48:43:
                    0c:24:b0:3e:31:b4:66:8b:74:e4:ec:a3:c0:22:c6:
                    f6:38:cf:97:a7:39:dc:4b:a1:e7:46:87:f8:66:e9:
                    30:3b
                Exponent: 65537 (0x10001)
    Signature Algorithm: sha512WithRSAEncryption
         35:2c:bf:5c:16:0a:0e:8d:17:fb:f5:4e:c5:d0:fb:19:a6:b0:
         a4:1e:89:6b:0c:48:71:f9:d9:b9:cc:c2:91:3d:09:35:07:f4:
         21:5b:21:2d:dc:a0:07:51:84:a6:e7:e7:2e:ef:87:30:c1:56:
         42:5f:82:c9:64:3c:b5:f6:ae:a3:62:d0:df:98:ff:d5:c1:ab:
         f6:88:fa:bb:c3:fb:6b:cd:6d:7b:fc:07:39:65:77:1c:db:10:
         da:18:2d:55:f1:d0:45:1d:f3:7a:91:f6:f3:03:12:74:6a:c4:
         19:be:29:8a:af:d1:5a:f4:ab:81:bb:49:6d:2c:e1:c8:d0:8e:
         b3:c6:25:21:8d:fd:04:d2:47:8d:9f:b9:92:a2:d4:4e:12:4c:
         e7:07:48:63:4e:93:71:67:e1:91:bb:e9:48:26:86:80:f1:69:
         1a:e9:bd:77:3c:58:8b:20:8e:3b:56:01:13:3b:59:74:ae:23:
         4e:d1:30:eb:e0:84:47:3d:1f:f5:14:f6:fc:97:65:0f:5b:44:
         f9:0b:59:2d:d2:09:c7:35:77:46:65:44:71:77:5d:b1:2c:8e:
         76:9d:23:11:b3:0b:17:35:1c:d8:3d:16:a5:94:43:e0:cd:f7:
         ed:0b:c3:47:88:0f:23:2a:47:2a:0c:bb:8c:4b:28:d6:5a:11:
         8b:1a:bb:cc
-----BEGIN CERTIFICATE-----
MIIDiTCCAnECAQIwDQYJKoZIhvcNAQENBQAwgYExCzAJBgNVBAYTAlVTMQswCQYD
VQQIDAJDQTEVMBMGA1UECgwMT3BlbiB2U3dpdGNoMREwDwYDVQQLDAhzd2l0Y2hj
YTE7MDkGA1UEAwwyT1ZTIHN3aXRjaGNhIENBIENlcnRpZmljYXRlICgyMDE3IE9j
dCAxMyAyMToyMTowMCkwHhcNMTcxMDEzMjEyMTAxWhcNMjcxMDExMjEyMTAxWjCB
kjELMAkGA1UEBhMCVVMxCzAJBgNVBAgMAkNBMRUwEwYDVQQKDAxPcGVuIHZTd2l0
Y2gxHzAdBgNVBAsMFk9wZW4gdlN3aXRjaCBjZXJ0aWZpZXIxPjA8BgNVBAMMNW92
bmNvbnRyb2xsZXIgaWQ6MWY2OTkwNDMtYjRkOS00ZTFhLWExZDItNDVjYjA2ZTll
MDIzMIIBIjANBgkqhkiG9w0BAQEFAAOCAQ8AMIIBCgKCAQEAnP/tfJrnTuiT9Apx
+tUUO/kN3R16K8bBBKZYp7WT0gifs18T6hT7hugJbVTHNPO7FwQrsIWIWBXMrW03
TEiTCwIVnf4Bqq2rlD5p04quMrt8voeaTKxzjHk0lAMBgrcLzdX3ITNSR+FPUtmv
1idMZ4Bub59LoL3xqsOH0lN7yeHYp0MVFNE+xyQf91v0fpdb8expKCkSQiCMbTZh
f07z/AkD+/VOoYiOU/ueosOLMDHG+6uFbIO1mlgeWzc019K3wI7Pza62BqNvoCx3
OWmON+8zahpV0mUrUt8DsbELSEMMJLA+MbRmi3Tk7KPAIsb2OM+XpzncS6HnRof4
ZukwOwIDAQABMA0GCSqGSIb3DQEBDQUAA4IBAQA1LL9cFgoOjRf79U7F0PsZprCk
HolrDEhx+dm5zMKRPQk1B/QhWyEt3KAHUYSm5+cu74cwwVZCX4LJZDy19q6jYtDf
mP/Vwav2iPq7w/trzW17/Ac5ZXcc2xDaGC1V8dBFHfN6kfbzAxJ0asQZvimKr9Fa
9KuBu0ltLOHI0I6zxiUhjf0E0keNn7mSotROEkznB0hjTpNxZ+GRu+lIJoaA8Wka
6b13PFiLII47VgETO1l0riNO0TDr4IRHPR/1FPb8l2UPW0T5C1kt0gnHNXdGZURx
d12xLI52nSMRswsXNRzYPRallEPgzfftC8NHiA8jKkcqDLuMSyjWWhGLGrvM
-----END CERTIFICATE-----
