Certificate:
    Data:
        Version: 1 (0x0)
        Serial Number: 3 (0x3)
    Signature Algorithm: sha512WithRSAEncryption
        Issuer: C=US, ST=CA, O=Open vSwitch, OU=switchca, CN=OVS switchca CA Certificate (2017 Oct 13 21:21:00)
        Validity
            Not Before: Oct 13 21:22:05 2017 GMT
            Not After : Oct 11 21:22:05 2027 GMT
        Subject: C=US, ST=CA, O=Open vSwitch, OU=Open vSwitch certifier, CN=ovncontroller id:705e093b-a215-4395-b294-dbae8e63b2ab
        Subject Public Key Info:
            Public Key Algorithm: rsaEncryption
                Public-Key: (2048 bit)
                Modulus:
                    00:b3:66:c1:6a:a7:8e:fd:94:54:07:94:e7:fe:cf:
                    96:40:89:3c:4f:79:de:cc:8b:56:11:16:c2:ac:b6:
                    6a:6b:a5:a1:b4:61:f4:47:c5:5e:c6:40:f7:0d:12:
                    fb:89:94:18:e4:cf:c9:b9:22:85:17:59:bc:39:89:
                    bb:41:61:68:93:ff:e5:61:2a:09:4e:92:61:3d:37:
                    44:aa:20:09:d4:c3:82:29:7c:95:30:b7:9c:fe:7a:
                    14:77:a6:75:36:f3:70:f0:f2:1b:8a:9b:6a:2e:81:
                    4b:6c:d2:78:b7:2c:23:a0:98:c3:98:a6:72:21:ba:
                    30:6d:cd:51:33:64:0f:ad:aa:4c:53:60:3f:f8:d7:
                    d7:33:83:0a:b0:b3:fc:63:2a:74:2c:ae:a7:89:21:
                    e6:4d:d1:38:5a:03:25:af:0c:46:9a:12:cc:9f:1b:
                    df:c7:cf:8b:5c:da:54:0a:cb:84:d9:43:82:2b:9b:
                    ab:0a:7b:85:11:36:66:4f:a1:8e:1c:1a:96:70:dc:
                    df:4d:8b:58:67:d7:e5:03:8a:69:fc:30:c3:66:1e:
                    41:79:3d:88:d2:aa:fc:a1:9a:10:03:c5:6a:fd:cf:
                    d8:97:9a:c2:38:b5:fe:47:76:4b:5d:8d:a4:50:9b:
                    50:5d:3a:7b:36:5a:b9:05:60:67:c8:d3:49:b4:f8:
                    2f:03
                Exponent: 65537 (0x10001)
    Signature Algorithm: sha512WithRSAEncryption
         19:1a:ba:ad:78:69:11:2c:65:be:ee:cd:84:cc:8d:51:03:ad:
         6a:8c:40:90:ab:39:d7:12:69:02:e4:91:6c:a9:21:e7:2c:27:
         7e:72:71:e6:ce:42:9d:b6:8a:d0:7c:d9:18:a9:09:25:97:2e:
         53:48:d2:1e:99:6a:f4:de:30:3b:51:00:2d:77:f1:51:83:bd:
         30:1a:02:b0:24:ce:48:61:46:43:65:8a:20:59:7d:35:56:76:
         58:3f:a1:c7:ed:3d:2a:1c:01:02:fc:a4:c6:3f:27:ca:b9:48:
         49:3c:02:64:60:77:30:e7:e0:4f:20:52:a1:7b:ea:57:d0:19:
         78:00:e6:c8:b8:2b:42:0b:84:bc:51:f4:7e:e0:fb:d7:8f:56:
         ae:9a:c4:6a:b9:01:8b:29:b5:16:be:5f:4f:00:f7:d3:47:fc:
         06:c0:2c:4f:37:7e:6e:90:a1:a5:1e:dd:75:fb:60:d3:42:93:
         57:8c:d7:92:c3:6e:93:92:3f:9b:d3:a8:02:5d:61:97:c9:7c:
         eb:b7:ba:f1:8c:9b:af:f1:7c:3d:3a:94:c9:6d:3e:78:55:41:
         c9:ab:b7:09:43:00:f5:a9:75:6b:35:83:04:8b:89:f0:47:5f:
         c0:38:a1:75:07:67:ee:b0:65:1d:ad:00:b9:84:34:b6:7f:68:
         1f:ce:55:cb
-----BEGIN CERTIFICATE-----
MIIDiTCCAnECAQMwDQYJKoZIhvcNAQENBQAwgYExCzAJBgNVBAYTAlVTMQswCQYD
VQQIDAJDQTEVMBMGA1UECgwMT3BlbiB2U3dpdGNoMREwDwYDVQQLDAhzd2l0Y2hj
YTE7MDkGA1UEAwwyT1ZTIHN3aXRjaGNhIENBIENlcnRpZmljYXRlICgyMDE3IE9j
dCAxMyAyMToyMTowMCkwHhcNMTcxMDEzMjEyMjA1WhcNMjcxMDExMjEyMjA1WjCB
kjELMAkGA1UEBhMCVVMxCzAJBgNVBAgMAkNBMRUwEwYDVQQKDAxPcGVuIHZTd2l0
Y2gxHzAdBgNVBAsMFk9wZW4gdlN3aXRjaCBjZXJ0aWZpZXIxPjA8BgNVBAMMNW92
bmNvbnRyb2xsZXIgaWQ6NzA1ZTA5M2ItYTIxNS00Mzk1LWIyOTQtZGJhZThlNjNi
MmFiMIIBIjANBgkqhkiG9w0BAQEFAAOCAQ8AMIIBCgKCAQEAs2bBaqeO/ZRUB5Tn
/s+WQIk8T3nezItWERbCrLZqa6WhtGH0R8VexkD3DRL7iZQY5M/JuSKFF1m8OYm7
QWFok//lYSoJTpJhPTdEqiAJ1MOCKXyVMLec/noUd6Z1NvNw8PIbiptqLoFLbNJ4
tywjoJjDmKZyIbowbc1RM2QPrapMU2A/+NfXM4MKsLP8Yyp0LK6niSHmTdE4WgMl
rwxGmhLMnxvfx8+LXNpUCsuE2UOCK5urCnuFETZmT6GOHBqWcNzfTYtYZ9flA4pp
/DDDZh5BeT2I0qr8oZoQA8Vq/c/Yl5rCOLX+R3ZLXY2kUJtQXTp7Nlq5BWBnyNNJ
tPgvAwIDAQABMA0GCSqGSIb3DQEBDQUAA4IBAQAZGrqteGkRLGW+7s2EzI1RA61q
jECQqznXEmkC5JFsqSHnLCd+cnHmzkKdtorQfNkYqQklly5TSNIemWr03jA7UQAt
d/FRg70wGgKwJM5IYUZDZYogWX01VnZYP6HH7T0qHAEC/KTGPyfKuUhJPAJkYHcw
5+BPIFKhe+pX0Bl4AObIuCtCC4S8UfR+4PvXj1aumsRquQGLKbUWvl9PAPfTR/wG
wCxPN35ukKGlHt11+2DTQpNXjNeSw26Tkj+b06gCXWGXyXzrt7rxjJuv8Xw9OpTJ
bT54VUHJq7cJQwD1qXVrNYMEi4nwR1/AOKF1B2fusGUdrQC5hDS2f2gfzlXL
-----END CERTIFICATE-----
