Certificate:
    Data:
        Version: 1 (0x0)
        Serial Number: 1 (0x1)
    Signature Algorithm: sha512WithRSAEncryption
        Issuer: C=US, ST=CA, O=Open vSwitch, OU=controllerca, CN=OVS controllerca CA Certificate (2017 Oct 13 21:21:00)
        Validity
            Not Before: Oct 13 21:21:00 2017 GMT
            Not After : Oct 11 21:21:00 2027 GMT
        Subject: C=US, ST=CA, O=Open vSwitch, OU=controllerca, CN=OVS controllerca CA Certificate (2017 Oct 13 21:21:00)
        Subject Public Key Info:
            Public Key Algorithm: rsaEncryption
                Public-Key: (2048 bit)
                Modulus:
                    00:cf:e1:87:be:51:29:76:be:88:73:68:64:6c:05:
                    43:c0:34:b8:c7:6d:8d:39:f6:9b:c6:07:ff:df:0b:
                    1c:0a:6b:9f:ab:c6:55:d6:11:00:7c:af:1b:03:af:
                    f7:b4:e2:54:93:2b:53:a9:08:9a:3b:6f:2e:6e:8e:
                    71:b6:a6:b9:39:c3:66:64:33:9c:e5:5e:a2:23:9c:
                    1e:dc:fe:de:90:08:c5:88:04:e4:b8:43:d5:e2:f6:
                    0d:8e:97:98:a9:e3:4f:81:77:67:07:58:7a:68:86:
                    1e:60:25:02:3e:58:36:7e:5e:93:6a:94:e9:25:e0:
                    3e:67:2d:39:1b:73:5d:7d:30:43:8d:07:07:b9:cd:
                    f6:54:63:27:7a:b0:91:cf:e2:e3:5e:5c:45:6c:90:
                    a5:a2:6a:a7:c2:27:57:6a:30:db:63:26:f0:fb:aa:
                    c0:7a:db:2b:c1:5a:9d:ed:72:5c:6b:cd:e8:87:69:
                    ba:db:4b:f0:c9:96:0e:65:bc:67:ec:e7:42:41:bd:
                    eb:0b:c6:68:15:ff:c4:f8:39:dd:81:c1:24:ad:69:
                    60:f4:20:9d:65:d6:3b:6c:1f:c7:f9:03:5f:45:be:
                    ff:cb:87:94:f2:86:54:67:0e:6e:c6:54:71:4f:13:
                    75:e5:b3:8b:03:19:af:99:1e:a4:5b:13:cf:b6:09:
                    a8:67
                Exponent: 65537 (0x10001)
    Signature Algorithm: sha512WithRSAEncryption
         21:5c:02:7f:12:d1:30:4c:a8:d6:c5:80:46:c1:db:02:06:b5:
         2b:6c:a3:f1:25:4c:4e:fe:03:5b:3b:ef:e8:eb:4e:83:9a:95:
         ef:92:3a:ea:bf:52:f8:43:16:f1:52:ee:73:9c:f8:6c:a2:07:
         b6:75:c7:2d:7a:32:54:f7:c4:66:99:43:6d:4b:d4:56:8f:07:
         4a:74:52:d0:eb:34:e3:f6:a7:1e:43:1b:86:43:30:bc:12:2f:
         b9:9e:0c:6a:77:70:7b:9c:55:8b:19:0b:24:df:21:5d:5d:94:
         46:e5:48:e2:6f:2d:de:3e:71:f4:4e:d7:c7:16:15:7a:ce:ad:
         b9:82:d7:49:39:2b:84:95:58:75:db:e9:b3:ab:ed:9e:52:e9:
         fa:02:0f:af:d4:14:28:68:a0:77:a5:4e:d6:fa:82:36:19:c8:
         ec:2f:b5:03:7b:e9:fb:6d:56:ba:2c:23:fe:2f:ef:ce:f6:3f:
         80:47:e8:2d:bc:17:4c:37:ae:45:f7:d4:3f:e0:50:2f:27:2a:
         9f:00:2e:7f:ef:f1:d6:7e:0a:20:d6:76:fb:39:6b:2b:a2:fe:
         f3:56:f1:8a:36:02:c0:98:38:2e:06:0c:93:d4:f6:70:11:7c:
         b4:da:08:80:08:70:cb:0a:4b:4c:3d:3d:6b:6d:25:82:57:9f:
         93:8f:bc:c0
-----BEGIN CERTIFICATE-----
MIIDiDCCAnACAQEwDQYJKoZIhvcNAQENBQAwgYkxCzAJBgNVBAYTAlVTMQswCQYD
VQQIDAJDQTEVMBMGA1UECgwMT3BlbiB2U3dpdGNoMRUwEwYDVQQLDAxjb250cm9s
bGVyY2ExPzA9BgNVBAMMNk9WUyBjb250cm9sbGVyY2EgQ0EgQ2VydGlmaWNhdGUg
KDIwMTcgT2N0IDEzIDIxOjIxOjAwKTAeFw0xNzEwMTMyMTIxMDBaFw0yNzEwMTEy
MTIxMDBaMIGJMQswCQYDVQQGEwJVUzELMAkGA1UECAwCQ0ExFTATBgNVBAoMDE9w
ZW4gdlN3aXRjaDEVMBMGA1UECwwMY29udHJvbGxlcmNhMT8wPQYDVQQDDDZPVlMg
Y29udHJvbGxlcmNhIENBIENlcnRpZmljYXRlICgyMDE3IE9jdCAxMyAyMToyMTow
MCkwggEiMA0GCSqGSIb3DQEBAQUAA4IBDwAwggEKAoIBAQDP4Ye+USl2vohzaGRs
BUPANLjHbY059pvGB//fCxwKa5+rxlXWEQB8rxsDr/e04lSTK1OpCJo7by5ujnG2
prk5w2ZkM5zlXqIjnB7c/t6QCMWIBOS4Q9Xi9g2Ol5ip40+Bd2cHWHpohh5gJQI+
WDZ+XpNqlOkl4D5nLTkbc119MEONBwe5zfZUYyd6sJHP4uNeXEVskKWiaqfCJ1dq
MNtjJvD7qsB62yvBWp3tclxrzeiHabrbS/DJlg5lvGfs50JBvesLxmgV/8T4Od2B
wSStaWD0IJ1l1jtsH8f5A19Fvv/Lh5TyhlRnDm7GVHFPE3Xls4sDGa+ZHqRbE8+2
CahnAgMBAAEwDQYJKoZIhvcNAQENBQADggEBACFcAn8S0TBMqNbFgEbB2wIGtSts
o/ElTE7+A1s77+jrToOale+SOuq/UvhDFvFS7nOc+GyiB7Z1xy16MlT3xGaZQ21L
1FaPB0p0UtDrNOP2px5DG4ZDMLwSL7meDGp3cHucVYsZCyTfIV1dlEblSOJvLd4+
cfRO18cWFXrOrbmC10k5K4SVWHXb6bOr7Z5S6foCD6/UFChooHelTtb6gjYZyOwv
tQN76fttVrosI/4v7872P4BH6C28F0w3rkX31D/gUC8nKp8ALn/v8dZ+CiDWdvs5
ayui/vNW8Yo2AsCYOC4GDJPU9nARfLTaCIAIcMsKS0w9PWttJYJXn5OPvMA=
-----END CERTIFICATE-----
